; Function Attrs: mustprogress nofree norecurse nosync nounwind memory(argmem: readwrite) uwtable
define noundef i32 @_ZN13MarchingCubes18AddTriangleIndicesEPKddPi(ptr noundef readonly captures(none) %0, double noundef %1, ptr noundef writeonly captures(none) %2) local_unnamed_addr #7 align 2 {
  %4 = load double, ptr %0, align 8
  %5 = fcmp olt double %4, %1
  %.0.i = zext i1 %5 to i8
  %6 = getelementptr inbounds nuw i8, ptr %0, i64 8
  %7 = load double, ptr %6, align 8
  %8 = fcmp olt double %7, %1
  %9 = or disjoint i8 %.0.i, 2
  %.1.i = select i1 %8, i8 %9, i8 %.0.i
  %10 = getelementptr inbounds nuw i8, ptr %0, i64 24
  %11 = load double, ptr %10, align 8
  %12 = fcmp olt double %11, %1
  %13 = or disjoint i8 %.1.i, 4
  %.2.i = select i1 %12, i8 %13, i8 %.1.i
  %14 = getelementptr inbounds nuw i8, ptr %0, i64 16
  %15 = load double, ptr %14, align 8
  %16 = fcmp olt double %15, %1
  %17 = or disjoint i8 %.2.i, 8
  %.3.i = select i1 %16, i8 %17, i8 %.2.i
  %18 = getelementptr inbounds nuw i8, ptr %0, i64 32
  %19 = load double, ptr %18, align 8
  %20 = fcmp olt double %19, %1
  %21 = or i8 %.3.i, 16
  %.4.i = select i1 %20, i8 %21, i8 %.3.i
  %22 = getelementptr inbounds nuw i8, ptr %0, i64 40
  %23 = load double, ptr %22, align 8
  %24 = fcmp olt double %23, %1
  %25 = or i8 %.4.i, 32
  %.5.i = select i1 %24, i8 %25, i8 %.4.i
  %26 = getelementptr inbounds nuw i8, ptr %0, i64 56
  %27 = load double, ptr %26, align 8
  %28 = fcmp olt double %27, %1
  %29 = or i8 %.5.i, 64
  %.6.i = select i1 %28, i8 %29, i8 %.5.i
  %30 = getelementptr inbounds nuw i8, ptr %0, i64 48
  %31 = load double, ptr %30, align 8
  %32 = fcmp olt double %31, %1
  %33 = or i8 %.6.i, -128
  %.7.i = select i1 %32, i8 %33, i8 %.6.i
  %34 = zext i8 %.7.i to i64
  %35 = add i8 %.7.i, 1
  %.not = icmp ult i8 %35, 2
  br i1 %.not, label %.loopexit, label %.preheader

.preheader:                                       ; preds = %3, %41
  %indvars.iv27 = phi i64 [ %indvars.iv.next28, %41 ], [ 0, %3 ]
  %.01723 = phi i32 [ %42, %41 ], [ 0, %3 ]
  br label %36

36:                                               ; preds = %.preheader, %36
  %indvars.iv = phi i64 [ 0, %.preheader ], [ %indvars.iv.next, %36 ]
  %37 = add nuw nsw i64 %indvars.iv, %indvars.iv27
  %38 = getelementptr inbounds nuw [256 x [16 x i32]], ptr @_ZN13MarchingCubes9trianglesE, i64 0, i64 %34, i64 %37
  %39 = load i32, ptr %38, align 4
  %40 = getelementptr inbounds nuw i32, ptr %2, i64 %37
  store i32 %39, ptr %40, align 4
  %indvars.iv.next = add nuw nsw i64 %indvars.iv, 1
  %exitcond.not = icmp eq i64 %indvars.iv.next, 3
  br i1 %exitcond.not, label %41, label %36, !llvm.loop !11

41:                                               ; preds = %36
  %42 = add nuw nsw i32 %.01723, 1
  %indvars.iv.next28 = add nuw nsw i64 %indvars.iv27, 3
  %43 = getelementptr inbounds nuw [256 x [16 x i32]], ptr @_ZN13MarchingCubes9trianglesE, i64 0, i64 %34, i64 %indvars.iv.next28
  %44 = load i32, ptr %43, align 4
  %.not19 = icmp eq i32 %44, -1
  br i1 %.not19, label %.loopexit, label %.preheader, !llvm.loop !12

.loopexit:                                        ; preds = %41, %3
  %.018 = phi i32 [ 0, %3 ], [ %42, %41 ]
  ret i32 %.018
}